target datalayout = "e-m:e-p270:32:32-p271:32:32-p272:64:64-i64:64-i128:128-f80:128-n8:16:32:64-S128"
target triple = "x86_64-pc-linux-gnu"

%union.PJ_COORD = type { [4 x double] }
%struct.PJconsts = type <{ ptr, ptr, ptr, ptr, ptr, ptr, ptr, ptr, ptr, ptr, ptr, ptr, i32, [4 x i8], ptr, ptr, ptr, ptr, ptr, ptr, ptr, ptr, double, double, double, double, double, double, double, double, double, double, double, double, double, double, double, double, double, double, double, double, double, double, i32, i32, i32, i32, i32, i32, i32, i32, i32, i32, i32, [4 x i8], ptr, ptr, ptr, ptr, ptr, ptr, double, double, double, double, double, double, double, double, double, double, double, i32, [4 x i8], [7 x double], i32, [4 x i8], ptr, ptr, double, double, i32, [4 x i8], %"class.std::shared_ptr", i8, [7 x i8], double, i8, [7 x i8], %"class.std::__cxx11::basic_string", %"class.std::__cxx11::basic_string", %"class.std::__cxx11::basic_string", i8, [7 x i8], %"class.std::vector", i32, [4 x i8], %"class.std::vector.3", i32, i8, i8, i8, i8 }>
%"class.std::shared_ptr" = type { %"class.std::__shared_ptr" }
%"class.std::__shared_ptr" = type { ptr, %"class.std::__shared_count" }
%"class.std::__shared_count" = type { ptr }
%"class.std::__cxx11::basic_string" = type { %"struct.std::__cxx11::basic_string<char>::_Alloc_hider", i64, %union.anon }
%"struct.std::__cxx11::basic_string<char>::_Alloc_hider" = type { ptr }
%union.anon = type { i64, [8 x i8] }
%"class.std::vector" = type { %"struct.std::_Vector_base" }
%"struct.std::_Vector_base" = type { %"struct.std::_Vector_base<osgeo::proj::operation::GridDescription, std::allocator<osgeo::proj::operation::GridDescription>>::_Vector_impl" }
%"struct.std::_Vector_base<osgeo::proj::operation::GridDescription, std::allocator<osgeo::proj::operation::GridDescription>>::_Vector_impl" = type { %"struct.std::_Vector_base<osgeo::proj::operation::GridDescription, std::allocator<osgeo::proj::operation::GridDescription>>::_Vector_impl_data" }
%"struct.std::_Vector_base<osgeo::proj::operation::GridDescription, std::allocator<osgeo::proj::operation::GridDescription>>::_Vector_impl_data" = type { ptr, ptr, ptr }
%"class.std::vector.3" = type { %"struct.std::_Vector_base.4" }
%"struct.std::_Vector_base.4" = type { %"struct.std::_Vector_base<PJCoordOperation, std::allocator<PJCoordOperation>>::_Vector_impl" }
%"struct.std::_Vector_base<PJCoordOperation, std::allocator<PJCoordOperation>>::_Vector_impl" = type { %"struct.std::_Vector_base<PJCoordOperation, std::allocator<PJCoordOperation>>::_Vector_impl_data" }
%"struct.std::_Vector_base<PJCoordOperation, std::allocator<PJCoordOperation>>::_Vector_impl_data" = type { ptr, ptr, ptr }
%struct.PJ_LPZ = type { double, double, double }

; Function Attrs: mustprogress uwtable
define double @proj_lp_dist(ptr noundef %0, ptr noundef byval(%union.PJ_COORD) align 8 %1, ptr noundef byval(%union.PJ_COORD) align 8 %2) #1 {
  %4 = alloca double, align 8
  %5 = alloca ptr, align 8
  %6 = alloca double, align 8
  %7 = alloca double, align 8
  %8 = alloca double, align 8
  store ptr %0, ptr %5, align 8
  %9 = load ptr, ptr %5, align 8
  %10 = getelementptr inbounds %struct.PJconsts, ptr %9, i32 0, i32 10
  %11 = load ptr, ptr %10, align 8
  %12 = icmp ne ptr %11, null
  br i1 %12, label %14, label %13

13:                                               ; preds = %3
  store double 0x7FF0000000000000, ptr %4, align 8
  br label %35

14:                                               ; preds = %3
  %15 = load ptr, ptr %5, align 8
  %16 = getelementptr inbounds %struct.PJconsts, ptr %15, i32 0, i32 10
  %17 = load ptr, ptr %16, align 8
  %18 = getelementptr inbounds %struct.PJ_LPZ, ptr %1, i32 0, i32 1
  %19 = load double, ptr %18, align 8
  %20 = fmul double %19, 1.800000e+02
  %21 = fdiv double %20, 0x400921FB54442D18
  %22 = getelementptr inbounds %struct.PJ_LPZ, ptr %1, i32 0, i32 0
  %23 = load double, ptr %22, align 8
  %24 = fmul double %23, 1.800000e+02
  %25 = fdiv double %24, 0x400921FB54442D18
  %26 = getelementptr inbounds %struct.PJ_LPZ, ptr %2, i32 0, i32 1
  %27 = load double, ptr %26, align 8
  %28 = fmul double %27, 1.800000e+02
  %29 = fdiv double %28, 0x400921FB54442D18
  %30 = getelementptr inbounds %struct.PJ_LPZ, ptr %2, i32 0, i32 0
  %31 = load double, ptr %30, align 8
  %32 = fmul double %31, 1.800000e+02
  %33 = fdiv double %32, 0x400921FB54442D18
  call void @geod_inverse(ptr noundef %17, double noundef %21, double noundef %25, double noundef %29, double noundef %33, ptr noundef %6, ptr noundef %7, ptr noundef %8)
  %34 = load double, ptr %6, align 8
  store double %34, ptr %4, align 8
  br label %35

35:                                               ; preds = %14, %13
  %36 = load double, ptr %4, align 8
  ret double %36
}